###############################################################################
#                                                                             #
# IAR ELF Linker V5.40.0.51500/W32 for ARM              04/May/2014  15:18:49 #
# Copyright (C) 2007-2009 IAR Systems AB.                                     #
#                                                                             #
#    Output file  =  F:\Users\Android\Desktop\detector_transporter\LED_DRIVER #
#                    _STM32F107\Project\Template\EWARMv5\STM3210C-EVAL\Exe\ST #
#                    M3210C-EVAL.out                                          #
#    Map file     =  F:\Users\Android\Desktop\detector_transporter\LED_DRIVER #
#                    _STM32F107\Project\Template\EWARMv5\STM3210C-EVAL\List\S #
#                    TM3210C-EVAL.map                                         #
#    Command line =  F:\Users\Android\Desktop\detector_transporter\LED_DRIVER #
#                    _STM32F107\Project\Template\EWARMv5\STM3210C-EVAL\Obj\co #
#                    re_cm3.o F:\Users\Android\Desktop\detector_transporter\L #
#                    ED_DRIVER_STM32F107\Project\Template\EWARMv5\STM3210C-EV #
#                    AL\Obj\hw_config.o F:\Users\Android\Desktop\detector_tra #
#                    nsporter\LED_DRIVER_STM32F107\Project\Template\EWARMv5\S #
#                    TM3210C-EVAL\Obj\main.o F:\Users\Android\Desktop\detecto #
#                    r_transporter\LED_DRIVER_STM32F107\Project\Template\EWAR #
#                    Mv5\STM3210C-EVAL\Obj\misc.o                             #
#                    F:\Users\Android\Desktop\detector_transporter\LED_DRIVER #
#                    _STM32F107\Project\Template\EWARMv5\STM3210C-EVAL\Obj\st #
#                    artup_stm32f10x_cl.o F:\Users\Android\Desktop\detector_t #
#                    ransporter\LED_DRIVER_STM32F107\Project\Template\EWARMv5 #
#                    \STM3210C-EVAL\Obj\stm32f10x_adc.o                       #
#                    F:\Users\Android\Desktop\detector_transporter\LED_DRIVER #
#                    _STM32F107\Project\Template\EWARMv5\STM3210C-EVAL\Obj\st #
#                    m32f10x_bkp.o F:\Users\Android\Desktop\detector_transpor #
#                    ter\LED_DRIVER_STM32F107\Project\Template\EWARMv5\STM321 #
#                    0C-EVAL\Obj\stm32f10x_can.o                              #
#                    F:\Users\Android\Desktop\detector_transporter\LED_DRIVER #
#                    _STM32F107\Project\Template\EWARMv5\STM3210C-EVAL\Obj\st #
#                    m32f10x_dac.o F:\Users\Android\Desktop\detector_transpor #
#                    ter\LED_DRIVER_STM32F107\Project\Template\EWARMv5\STM321 #
#                    0C-EVAL\Obj\stm32f10x_dma.o                              #
#                    F:\Users\Android\Desktop\detector_transporter\LED_DRIVER #
#                    _STM32F107\Project\Template\EWARMv5\STM3210C-EVAL\Obj\st #
#                    m32f10x_exti.o F:\Users\Android\Desktop\detector_transpo #
#                    rter\LED_DRIVER_STM32F107\Project\Template\EWARMv5\STM32 #
#                    10C-EVAL\Obj\stm32f10x_fsmc.o                            #
#                    F:\Users\Android\Desktop\detector_transporter\LED_DRIVER #
#                    _STM32F107\Project\Template\EWARMv5\STM3210C-EVAL\Obj\st #
#                    m32f10x_gpio.o F:\Users\Android\Desktop\detector_transpo #
#                    rter\LED_DRIVER_STM32F107\Project\Template\EWARMv5\STM32 #
#                    10C-EVAL\Obj\stm32f10x_it.o                              #
#                    F:\Users\Android\Desktop\detector_transporter\LED_DRIVER #
#                    _STM32F107\Project\Template\EWARMv5\STM3210C-EVAL\Obj\st #
#                    m32f10x_pwr.o F:\Users\Android\Desktop\detector_transpor #
#                    ter\LED_DRIVER_STM32F107\Project\Template\EWARMv5\STM321 #
#                    0C-EVAL\Obj\stm32f10x_rcc.o                              #
#                    F:\Users\Android\Desktop\detector_transporter\LED_DRIVER #
#                    _STM32F107\Project\Template\EWARMv5\STM3210C-EVAL\Obj\st #
#                    m32f10x_rtc.o F:\Users\Android\Desktop\detector_transpor #
#                    ter\LED_DRIVER_STM32F107\Project\Template\EWARMv5\STM321 #
#                    0C-EVAL\Obj\stm32f10x_spi.o                              #
#                    F:\Users\Android\Desktop\detector_transporter\LED_DRIVER #
#                    _STM32F107\Project\Template\EWARMv5\STM3210C-EVAL\Obj\st #
#                    m32f10x_tim.o F:\Users\Android\Desktop\detector_transpor #
#                    ter\LED_DRIVER_STM32F107\Project\Template\EWARMv5\STM321 #
#                    0C-EVAL\Obj\stm32f10x_usart.o                            #
#                    F:\Users\Android\Desktop\detector_transporter\LED_DRIVER #
#                    _STM32F107\Project\Template\EWARMv5\STM3210C-EVAL\Obj\sy #
#                    stem_stm32f10x.o -o F:\Users\Android\Desktop\detector_tr #
#                    ansporter\LED_DRIVER_STM32F107\Project\Template\EWARMv5\ #
#                    STM3210C-EVAL\Exe\STM3210C-EVAL.out --map                #
#                    F:\Users\Android\Desktop\detector_transporter\LED_DRIVER #
#                    _STM32F107\Project\Template\EWARMv5\STM3210C-EVAL\List\S #
#                    TM3210C-EVAL.map --config F:\Users\Android\Desktop\detec #
#                    tor_transporter\LED_DRIVER_STM32F107\Project\Template\EW #
#                    ARMv5\STM32F10x_FLASH.icf --semihosting --entry          #
#                    __iar_program_start                                      #
#                                                                             #
#                                                                             #
###############################################################################

*******************************************************************************
*** RUNTIME MODEL ATTRIBUTES
***

__endian      = little
__thumb_aware = enabled


*******************************************************************************
*** PLACEMENT SUMMARY
***

"A1":  place at 0x08000000 { ro section .intvec };
"P1":  place in [from 0x08000000 to 0x0807ffff] { ro };
"P2":  place in [from 0x20000000 to 0x2000ffff] {
          rw, block CSTACK, block HEAP };

  Section            Kind        Address    Size  Object
  -------            ----        -------    ----  ------
"A1":                                      0x150
  .intvec            ro code  0x08000000   0x150  startup_stm32f10x_cl.o [1]
                            - 0x08000150   0x150

"P1":                                     0x1750
  .text              ro code  0x08000150   0x5f8  main.o [1]
  .text              ro code  0x08000748   0x4b6  stm32f10x_can.o [1]
  .text              ro code  0x08000c00   0x2a8  stm32f10x_it.o [1]
  .text              ro code  0x08000ea8   0x250  stm32f10x_rcc.o [1]
  .text              ro code  0x080010f8   0x19c  system_stm32f10x.o [1]
  .text              ro code  0x08001294   0x16c  stm32f10x_usart.o [1]
  .text              ro code  0x08001400   0x150  stm32f10x_gpio.o [1]
  .text              ro code  0x08001550    0xb2  stm32f10x_tim.o [1]
  .text              ro code  0x08001604    0x90  misc.o [1]
  .text              ro code  0x08001694    0x24  copy_init2.o [4]
  .iar.init_table    const    0x080016b8    0x24  - Linker created -
  .text              ro code  0x080016dc    0x20  data_init2.o [4]
  .text              ro code  0x080016fc    0x1c  iarwstd.o [5]
  .text              ro code  0x08001718    0x1a  zero_init2.o [4]
  .text              ro code  0x08001734    0x18  cmain.o [4]
  .text              ro code  0x0800174c    0x14  exit.o [5]
  .text              ro code  0x08001760     0xa  cexit.o [4]
  .text              ro code  0x0800176a     0x6  exit.o [3]
  .text              ro code  0x08001770     0x4  startup_stm32f10x_cl.o [1]
  .text              ro code  0x08001774     0x4  startup_stm32f10x_cl.o [1]
  .text              ro code  0x08001778     0x4  startup_stm32f10x_cl.o [1]
  .text              ro code  0x0800177c     0x4  startup_stm32f10x_cl.o [1]
  .text              ro code  0x08001780     0x4  startup_stm32f10x_cl.o [1]
  .text              ro code  0x08001784     0x4  startup_stm32f10x_cl.o [1]
  .text              ro code  0x08001788     0x4  startup_stm32f10x_cl.o [1]
  .text              ro code  0x0800178c     0x4  startup_stm32f10x_cl.o [1]
  .text              ro code  0x08001790     0x4  startup_stm32f10x_cl.o [1]
  .text              ro code  0x08001794     0x4  startup_stm32f10x_cl.o [1]
  .text              ro code  0x08001798     0x4  startup_stm32f10x_cl.o [1]
  .text              ro code  0x0800179c     0x4  startup_stm32f10x_cl.o [1]
  .text              ro code  0x080017a0     0x4  startup_stm32f10x_cl.o [1]
  .text              ro code  0x080017a4     0x4  startup_stm32f10x_cl.o [1]
  .text              ro code  0x080017a8     0x4  startup_stm32f10x_cl.o [1]
  .text              ro code  0x080017ac     0x4  startup_stm32f10x_cl.o [1]
  .text              ro code  0x080017b0     0x4  startup_stm32f10x_cl.o [1]
  .text              ro code  0x080017b4     0x4  startup_stm32f10x_cl.o [1]
  .text              ro code  0x080017b8     0x4  startup_stm32f10x_cl.o [1]
  .text              ro code  0x080017bc     0x4  startup_stm32f10x_cl.o [1]
  .text              ro code  0x080017c0     0x4  startup_stm32f10x_cl.o [1]
  .text              ro code  0x080017c4     0x4  startup_stm32f10x_cl.o [1]
  .text              ro code  0x080017c8     0x4  startup_stm32f10x_cl.o [1]
  .text              ro code  0x080017cc     0x4  startup_stm32f10x_cl.o [1]
  .text              ro code  0x080017d0     0x4  startup_stm32f10x_cl.o [1]
  .text              ro code  0x080017d4     0x4  startup_stm32f10x_cl.o [1]
  .text              ro code  0x080017d8     0x4  startup_stm32f10x_cl.o [1]
  .text              ro code  0x080017dc     0x4  startup_stm32f10x_cl.o [1]
  .text              ro code  0x080017e0     0x4  startup_stm32f10x_cl.o [1]
  .text              ro code  0x080017e4     0x4  startup_stm32f10x_cl.o [1]
  .text              ro code  0x080017e8     0x4  startup_stm32f10x_cl.o [1]
  .text              ro code  0x080017ec     0x4  startup_stm32f10x_cl.o [1]
  .text              ro code  0x080017f0     0x4  startup_stm32f10x_cl.o [1]
  .text              ro code  0x080017f4     0x4  startup_stm32f10x_cl.o [1]
  .text              ro code  0x080017f8     0x4  startup_stm32f10x_cl.o [1]
  .text              ro code  0x080017fc     0x4  startup_stm32f10x_cl.o [1]
  .text              ro code  0x08001800     0x4  startup_stm32f10x_cl.o [1]
  .text              ro code  0x08001804     0x4  startup_stm32f10x_cl.o [1]
  .text              ro code  0x08001808     0x4  startup_stm32f10x_cl.o [1]
  .text              ro code  0x0800180c     0x4  startup_stm32f10x_cl.o [1]
  .text              ro code  0x08001810     0x4  startup_stm32f10x_cl.o [1]
  .text              ro code  0x08001814     0x4  startup_stm32f10x_cl.o [1]
  .text              ro code  0x08001818     0x4  startup_stm32f10x_cl.o [1]
  .text              ro code  0x0800181c     0x4  startup_stm32f10x_cl.o [1]
  .text              ro code  0x08001820     0x4  startup_stm32f10x_cl.o [1]
  .text              ro code  0x08001824     0x4  startup_stm32f10x_cl.o [1]
  .text              ro code  0x08001828     0x4  startup_stm32f10x_cl.o [1]
  .text              ro code  0x0800182c     0x4  startup_stm32f10x_cl.o [1]
  .text              ro code  0x08001830     0x4  startup_stm32f10x_cl.o [1]
  .text              ro code  0x08001834     0x4  startup_stm32f10x_cl.o [1]
  .text              ro code  0x08001838     0x4  startup_stm32f10x_cl.o [1]
  .text              ro code  0x0800183c     0x4  startup_stm32f10x_cl.o [1]
  .text              ro code  0x08001840     0x4  startup_stm32f10x_cl.o [1]
  .text              ro code  0x08001844     0x4  startup_stm32f10x_cl.o [1]
  .text              ro code  0x08001848     0x4  startup_stm32f10x_cl.o [1]
  .text              ro code  0x0800184c     0x4  startup_stm32f10x_cl.o [1]
  .text              ro code  0x08001850     0x4  startup_stm32f10x_cl.o [1]
  .text              ro code  0x08001854     0x4  startup_stm32f10x_cl.o [1]
  .text              ro code  0x08001858     0x4  startup_stm32f10x_cl.o [1]
  .text              ro code  0x0800185c     0x4  startup_stm32f10x_cl.o [1]
  .text              ro code  0x08001860     0x4  startup_stm32f10x_cl.o [1]
  .text              ro code  0x08001864     0x4  startup_stm32f10x_cl.o [1]
  .text              ro code  0x08001868     0x4  startup_stm32f10x_cl.o [1]
  .text              ro code  0x0800186c     0x4  startup_stm32f10x_cl.o [1]
  .text              ro code  0x08001870     0x4  startup_stm32f10x_cl.o [1]
  .text              ro code  0x08001874     0x4  startup_stm32f10x_cl.o [1]
  .text              ro code  0x08001878     0x4  startup_stm32f10x_cl.o [1]
  .text              ro code  0x0800187c     0x4  startup_stm32f10x_cl.o [1]
  .text              ro code  0x08001880     0x4  startup_stm32f10x_cl.o [1]
  .text              ro code  0x08001884     0x4  startup_stm32f10x_cl.o [1]
  .text              ro code  0x08001888     0x4  low_level_init.o [3]
  Initializer bytes  ro data  0x0800188c    0x14  <for P2 s0>
                            - 0x080018a0  0x1750

"P2", part 1 of 3:                         0x400
  CSTACK                      0x20000000   0x400  <Block>
    CSTACK           uninit   0x20000000   0x400  <Block tail>
                            - 0x20000400   0x400

"P2", part 2 of 3:                          0x6c
  .bss               zero     0x20000400    0x14  stm32f10x_it.o [1]
  .bss               zero     0x20000414    0x10  main.o [1]
  .bss               zero     0x20000424    0x10  main.o [1]
  .bss               zero     0x20000434    0x10  main.o [1]
  .bss               zero     0x20000444     0xc  main.o [1]
  .bss               zero     0x20000450     0x8  main.o [1]
  .bss               zero     0x20000458     0x4  main.o [1]
  .bss               zero     0x2000045c     0x4  main.o [1]
  .bss               zero     0x20000460     0x4  iarwstd.o [5]
  .bss               zero     0x20000464     0x2  stm32f10x_it.o [1]
  .bss               zero     0x20000466     0x1  main.o [1]
  .bss               zero     0x20000467     0x1  main.o [1]
  .bss               zero     0x20000468     0x1  main.o [1]
  .bss               zero     0x20000469     0x1  main.o [1]
  .bss               zero     0x2000046a     0x1  main.o [1]
  .bss               zero     0x2000046b     0x1  main.o [1]
                            - 0x2000046c    0x6c

"P2", part 3 of 3:                          0x14
  P2 s0                       0x2000046c    0x14  <Init block>
    .data            inited   0x2000046c    0x10  stm32f10x_rcc.o [1]
    .data            inited   0x2000047c     0x4  stm32f10x_rcc.o [1]
                            - 0x20000480    0x14


*******************************************************************************
*** INIT TABLE
***

          Address     Size
          -------     ----
Zero (__iar_zero_init2)
    1 destination range, total size 0x6c:
          0x20000400  0x6c

Copy (__iar_copy_init2)
    1 source range, total size 0x14 (100% of destination):
          0x0800188c  0x14
    1 destination range, total size 0x14:
          0x2000046c  0x14


*******************************************************************************
*** MODULE SUMMARY
***

    Module                  ro code  ro data  rw data
    ------                  -------  -------  -------
F:\Users\Android\Desktop\detector_transporter\LED_DRIVER_STM32F107\Project\Template\EWARMv5\STM3210C-EVAL\Obj: [1]
    main.o                    1 528                82
    misc.o                      144
    startup_stm32f10x_cl.o      616
    stm32f10x_can.o           1 206
    stm32f10x_gpio.o            336
    stm32f10x_it.o              680                22
    stm32f10x_rcc.o             592       20       20
    stm32f10x_tim.o             178
    stm32f10x_usart.o           364
    system_stm32f10x.o          412
    -------------------------------------------------
    Total:                    6 056       20      124

command line: [2]
    -------------------------------------------------
    Total:

dl7M_tl_in.a: [3]
    exit.o                        6
    low_level_init.o              4
    -------------------------------------------------
    Total:                       10

rt7M_tl.a: [4]
    cexit.o                      10
    cmain.o                      24
    copy_init2.o                 36
    data_init2.o                 32
    zero_init2.o                 26
    -------------------------------------------------
    Total:                      128

shb_l.a: [5]
    exit.o                       20
    iarwstd.o                    28                 4
    -------------------------------------------------
    Total:                       48                 4

    Gaps                          6
    Linker created                        36    1 024
-----------------------------------------------------
    Grand Total:              6 248       56    1 152


*******************************************************************************
*** ENTRY LIST
***

Entry                      Address   Size  Type      Object
-----                      -------   ----  ----      ------
ADC1_2_IRQHandler       0x080017dd         Code  Wk  startup_stm32f10x_cl.o [1]
ADCPrescTable           0x2000047c    0x4  Data  Lc  stm32f10x_rcc.o [1]
APBAHBPrescTable        0x2000046c   0x10  Data  Lc  stm32f10x_rcc.o [1]
BusFault_Handler        0x08000c07    0x2  Code  Gb  stm32f10x_it.o [1]
CAN1_RX0_IRQHandler     0x08000ced   0x68  Code  Gb  stm32f10x_it.o [1]
CAN1_RX1_IRQHandler     0x080017e9         Code  Wk  startup_stm32f10x_cl.o [1]
CAN1_SCE_IRQHandler     0x080017ed         Code  Wk  startup_stm32f10x_cl.o [1]
CAN1_TX_IRQHandler      0x080017e1         Code  Wk  startup_stm32f10x_cl.o [1]
CAN2_RX0_IRQHandler     0x08000e5d   0x18  Code  Gb  stm32f10x_it.o [1]
CAN2_RX1_IRQHandler     0x0800187d         Code  Wk  startup_stm32f10x_cl.o [1]
CAN2_SCE_IRQHandler     0x08001881         Code  Wk  startup_stm32f10x_cl.o [1]
CAN2_TX_IRQHandler      0x08001875         Code  Wk  startup_stm32f10x_cl.o [1]
CAN_Configuration       0x08000609  0x11c  Code  Gb  main.o [1]
CAN_DeInit              0x08000749   0x3c  Code  Gb  stm32f10x_can.o [1]
CAN_FIFORelease         0x08000b0b   0x12  Code  Gb  stm32f10x_can.o [1]
CAN_FilterInit          0x080008a1   0xf8  Code  Gb  stm32f10x_can.o [1]
CAN_ITConfig            0x080009cd   0x16  Code  Gb  stm32f10x_can.o [1]
CAN_Init                0x08000785  0x11c  Code  Gb  stm32f10x_can.o [1]
CAN_Receive             0x08000b1d   0xe2  Code  Gb  stm32f10x_can.o [1]
CAN_StructInit          0x08000999   0x2e  Code  Gb  stm32f10x_can.o [1]
CAN_Transmit            0x080009e3  0x128  Code  Gb  stm32f10x_can.o [1]
CSTACK$$Base            0x20000000          --   Gb  - Linker created -
CSTACK$$Limit           0x20000400          --   Gb  - Linker created -
DMA1_Channel1_IRQHandler
                        0x080017c1         Code  Wk  startup_stm32f10x_cl.o [1]
DMA1_Channel2_IRQHandler
                        0x080017c5         Code  Wk  startup_stm32f10x_cl.o [1]
DMA1_Channel3_IRQHandler
                        0x080017c9         Code  Wk  startup_stm32f10x_cl.o [1]
DMA1_Channel4_IRQHandler
                        0x080017cd         Code  Wk  startup_stm32f10x_cl.o [1]
DMA1_Channel5_IRQHandler
                        0x080017d1         Code  Wk  startup_stm32f10x_cl.o [1]
DMA1_Channel6_IRQHandler
                        0x080017d5         Code  Wk  startup_stm32f10x_cl.o [1]
DMA1_Channel7_IRQHandler
                        0x080017d9         Code  Wk  startup_stm32f10x_cl.o [1]
DMA2_Channel1_IRQHandler
                        0x08001859         Code  Wk  startup_stm32f10x_cl.o [1]
DMA2_Channel2_IRQHandler
                        0x0800185d         Code  Wk  startup_stm32f10x_cl.o [1]
DMA2_Channel3_IRQHandler
                        0x08001861         Code  Wk  startup_stm32f10x_cl.o [1]
DMA2_Channel4_IRQHandler
                        0x08001865         Code  Wk  startup_stm32f10x_cl.o [1]
DMA2_Channel5_IRQHandler
                        0x08001869         Code  Wk  startup_stm32f10x_cl.o [1]
DebugMon_Handler        0x08000c0d    0x2  Code  Gb  stm32f10x_it.o [1]
Delay                   0x08000731   0x14  Code  Gb  main.o [1]
ETH_IRQHandler          0x0800186d         Code  Wk  startup_stm32f10x_cl.o [1]
ETH_WKUP_IRQHandler     0x08001871         Code  Wk  startup_stm32f10x_cl.o [1]
EXTI0_IRQHandler        0x080017ad         Code  Wk  startup_stm32f10x_cl.o [1]
EXTI15_10_IRQHandler    0x08001835         Code  Wk  startup_stm32f10x_cl.o [1]
EXTI1_IRQHandler        0x080017b1         Code  Wk  startup_stm32f10x_cl.o [1]
EXTI2_IRQHandler        0x080017b5         Code  Wk  startup_stm32f10x_cl.o [1]
EXTI3_IRQHandler        0x080017b9         Code  Wk  startup_stm32f10x_cl.o [1]
EXTI4_IRQHandler        0x080017bd         Code  Wk  startup_stm32f10x_cl.o [1]
EXTI9_5_IRQHandler      0x080017f1         Code  Wk  startup_stm32f10x_cl.o [1]
FLASH_IRQHandler        0x080017a5         Code  Wk  startup_stm32f10x_cl.o [1]
GPIO_Configuration      0x08000399  0x12e  Code  Gb  main.o [1]
GPIO_Init               0x08001401  0x150  Code  Gb  stm32f10x_gpio.o [1]
HardFault_Handler       0x08000c03    0x2  Code  Gb  stm32f10x_it.o [1]
I2C1_ER_IRQHandler      0x08001815         Code  Wk  startup_stm32f10x_cl.o [1]
I2C1_EV_IRQHandler      0x08001811         Code  Wk  startup_stm32f10x_cl.o [1]
I2C2_ER_IRQHandler      0x0800181d         Code  Wk  startup_stm32f10x_cl.o [1]
I2C2_EV_IRQHandler      0x08001819         Code  Wk  startup_stm32f10x_cl.o [1]
MemManage_Handler       0x08000c05    0x2  Code  Gb  stm32f10x_it.o [1]
NMI_Handler             0x08000c01    0x2  Code  Gb  stm32f10x_it.o [1]
NVIC_Configuration      0x08000501   0xc0  Code  Gb  main.o [1]
NVIC_Init               0x08001615   0x7c  Code  Gb  misc.o [1]
NVIC_PriorityGroupConfig
                        0x08001605   0x10  Code  Gb  misc.o [1]
OTG_FS_IRQHandler       0x08001885         Code  Wk  startup_stm32f10x_cl.o [1]
OTG_FS_WKUP_IRQHandler  0x0800183d         Code  Wk  startup_stm32f10x_cl.o [1]
PVD_IRQHandler          0x08001799         Code  Wk  startup_stm32f10x_cl.o [1]
PendSV_Handler          0x08000c0f    0x2  Code  Gb  stm32f10x_it.o [1]
RCC_APB1PeriphClockCmd  0x080010b1   0x24  Code  Gb  stm32f10x_rcc.o [1]
RCC_APB1PeriphResetCmd  0x080010d5   0x24  Code  Gb  stm32f10x_rcc.o [1]
RCC_APB2PeriphClockCmd  0x0800108d   0x24  Code  Gb  stm32f10x_rcc.o [1]
RCC_Configuration       0x08000379   0x20  Code  Gb  main.o [1]
RCC_GetClocksFreq       0x08000ea9  0x1dc  Code  Gb  stm32f10x_rcc.o [1]
RCC_IRQHandler          0x080017a9         Code  Wk  startup_stm32f10x_cl.o [1]
RTCAlarm_IRQHandler     0x08001839         Code  Wk  startup_stm32f10x_cl.o [1]
RTC_IRQHandler          0x080017a1         Code  Wk  startup_stm32f10x_cl.o [1]
Region$$Table$$Base     0x080016b8          --   Gb  - Linker created -
Region$$Table$$Limit    0x080016dc          --   Gb  - Linker created -
RxBuffer1               0x20000414   0x10  Data  Gb  main.o [1]
RxBuffer_wireless       0x20000424   0x10  Data  Gb  main.o [1]
RxCounter1              0x20000466    0x1  Data  Gb  main.o [1]
RxCounter_wireless      0x2000046a    0x1  Data  Gb  main.o [1]
SPI1_IRQHandler         0x08001821         Code  Wk  startup_stm32f10x_cl.o [1]
SPI2_IRQHandler         0x08001825         Code  Wk  startup_stm32f10x_cl.o [1]
SPI3_IRQHandler         0x08001845         Code  Wk  startup_stm32f10x_cl.o [1]
SVC_Handler             0x08000c0b    0x2  Code  Gb  stm32f10x_it.o [1]
SetSysClock             0x08001165    0x8  Code  Lc  system_stm32f10x.o [1]
SetSysClockTo72         0x0800116d  0x11c  Code  Lc  system_stm32f10x.o [1]
SysTick_Handler         0x08000c11    0x2  Code  Gb  stm32f10x_it.o [1]
SystemInit              0x080010f9   0x6c  Code  Gb  system_stm32f10x.o [1]
TAMPER_IRQHandler       0x0800179d         Code  Wk  startup_stm32f10x_cl.o [1]
TIM1_BRK_IRQHandler     0x080017f5         Code  Wk  startup_stm32f10x_cl.o [1]
TIM1_CC_IRQHandler      0x08001801         Code  Wk  startup_stm32f10x_cl.o [1]
TIM1_TRG_COM_IRQHandler
                        0x080017fd         Code  Wk  startup_stm32f10x_cl.o [1]
TIM1_UP_IRQHandler      0x080017f9         Code  Wk  startup_stm32f10x_cl.o [1]
TIM2_IRQHandler         0x08000e3d    0x2  Code  Gb  stm32f10x_it.o [1]
TIM3_IRQHandler         0x08000e3f    0x2  Code  Gb  stm32f10x_it.o [1]
TIM4_Configuration      0x080005c1   0x48  Code  Gb  main.o [1]
TIM4_IRQHandler         0x08000e41   0x18  Code  Gb  stm32f10x_it.o [1]
TIM4_TimeBaseStructure  0x20000444    0xc  Data  Gb  main.o [1]
TIM5_IRQHandler         0x08001841         Code  Wk  startup_stm32f10x_cl.o [1]
TIM6_IRQHandler         0x08001851         Code  Wk  startup_stm32f10x_cl.o [1]
TIM7_IRQHandler         0x08001855         Code  Wk  startup_stm32f10x_cl.o [1]
TIM_ClearITPendingBit   0x080015fb    0x8  Code  Gb  stm32f10x_tim.o [1]
TIM_Cmd                 0x08001591   0x1c  Code  Gb  stm32f10x_tim.o [1]
TIM_GetITStatus         0x080015c3   0x38  Code  Gb  stm32f10x_tim.o [1]
TIM_ITConfig            0x080015ad   0x16  Code  Gb  stm32f10x_tim.o [1]
TIM_TimeBaseInit        0x08001551   0x36  Code  Gb  stm32f10x_tim.o [1]
TxBuffer1               0x20000450    0x8  Data  Gb  main.o [1]
TxMessage               0x20000400   0x14  Data  Gb  stm32f10x_it.o [1]
UART4_IRQHandler        0x08000e75   0x2a  Code  Gb  stm32f10x_it.o [1]
UART5_IRQHandler        0x0800184d         Code  Wk  startup_stm32f10x_cl.o [1]
USART1_IRQHandler       0x08000c15   0xb0  Code  Gb  stm32f10x_it.o [1]
USART2_IRQHandler       0x08000cc5   0x28  Code  Gb  stm32f10x_it.o [1]
USART3_IRQHandler       0x08000d55   0xe4  Code  Gb  stm32f10x_it.o [1]
USART_ClearFlag         0x080013f5    0xc  Code  Gb  stm32f10x_usart.o [1]
USART_Cmd               0x08001349   0x1c  Code  Gb  stm32f10x_usart.o [1]
USART_Config            0x080004c9   0x38  Code  Gb  main.o [1]
USART_GetFlagStatus     0x080013d3   0x22  Code  Gb  stm32f10x_usart.o [1]
USART_ITConfig          0x08001365   0x5e  Code  Gb  stm32f10x_usart.o [1]
USART_Init              0x08001295   0xb0  Code  Gb  stm32f10x_usart.o [1]
USART_InitStructure     0x20000434   0x10  Data  Gb  main.o [1]
USART_ReceiveData       0x080013cb    0x8  Code  Gb  stm32f10x_usart.o [1]
USART_SendData          0x080013c3    0x8  Code  Gb  stm32f10x_usart.o [1]
UsageFault_Handler      0x08000c09    0x2  Code  Gb  stm32f10x_it.o [1]
WWDG_IRQHandler         0x08001795         Code  Wk  startup_stm32f10x_cl.o [1]
__exit                  0x0800174d   0x14  Code  Gb  exit.o [5]
__iar_copy_init2        0x08001695   0x24  Code  Gb  copy_init2.o [4]
__iar_data_init2        0x080016dd   0x20  Code  Gb  data_init2.o [4]
__iar_program_start     0x08001735         Code  Gb  cmain.o [4]
__iar_sh_stdout_close   0x080016fd   0x16  Code  Gb  iarwstd.o [5]
__iar_sh_stdout_handle  0x20000460    0x4  Data  Lc  iarwstd.o [5]
__iar_zero_init2        0x08001719   0x1a  Code  Gb  zero_init2.o [4]
__low_level_init        0x08001889    0x4  Code  Gb  low_level_init.o [3]
__vector_table          0x08000000         Data  Gb  startup_stm32f10x_cl.o [1]
_exit                   0x08001761         Code  Gb  cexit.o [4]
_main                   0x08001747         Code  Gb  cmain.o [4]
aa                      0x20000464    0x2  Data  Gb  stm32f10x_it.o [1]
distance_valid_flag     0x20000458    0x4  Data  Gb  main.o [1]
exit                    0x0800176b    0x6  Code  Gb  exit.o [3]
m                       0x20000469    0x1  Data  Gb  main.o [1]
main                    0x08000151  0x228  Code  Gb  main.o [1]
n                       0x20000468    0x1  Data  Gb  main.o [1]
rec_f                   0x20000467    0x1  Data  Gb  main.o [1]
send_data_flag          0x2000045c    0x4  Data  Gb  main.o [1]
y_bias                  0x2000046b    0x1  Data  Gb  main.o [1]


[1] = F:\Users\Android\Desktop\detector_transporter\LED_DRIVER_STM32F107\Project\Template\EWARMv5\STM3210C-EVAL\Obj
[2] = command line
[3] = dl7M_tl_in.a
[4] = rt7M_tl.a
[5] = shb_l.a

  6 248 bytes of readonly  code memory
     56 bytes of readonly  data memory
  1 152 bytes of readwrite data memory

Errors: none
Warnings: none
